; Function Attrs: mustprogress uwtable
define dso_local void @_ZN3net14QuicConnection27WritePendingRetransmissionsEv(ptr noundef nonnull align 8 dereferenceable(3372) %this) local_unnamed_addr #0 align 2 {
entry:
  %pending = alloca %"struct.net::PendingRetransmission", align 8
  %buffer = alloca [1452 x i8], align 16
  %sent_packet_manager_ = getelementptr inbounds i8, ptr %this, i64 3192
  %0 = load ptr, ptr %sent_packet_manager_, align 8
  %vtable1 = load ptr, ptr %0, align 8
  %vfn2 = getelementptr inbounds i8, ptr %vtable1, i64 88
  %1 = load ptr, ptr %vfn2, align 8
  %call23 = tail call noundef zeroext i1 %1(ptr noundef nonnull align 8 dereferenceable(8) %0)
  br i1 %call23, label %while.body.lr.ph, label %while.end

while.body.lr.ph:                                 ; preds = %entry
  %packet_generator_ = getelementptr inbounds i8, ptr %this, i64 2408
  br label %while.body

while.body:                                       ; preds = %while.body.lr.ph, %if.end
  %2 = load ptr, ptr %sent_packet_manager_, align 8
  %vtable5 = load ptr, ptr %2, align 8
  %vfn6 = getelementptr inbounds i8, ptr %vtable5, i64 96
  %3 = load ptr, ptr %vfn6, align 8
  call void %3(ptr nonnull sret(%"struct.net::PendingRetransmission") align 8 %pending, ptr noundef nonnull align 8 dereferenceable(8) %2)
  %call7 = call noundef zeroext i1 @_ZN3net14QuicConnection8CanWriteENS_22HasRetransmittableDataE(ptr noundef nonnull align 8 dereferenceable(3372) %this, i8 noundef signext 1)
  br i1 %call7, label %if.end, label %while.end

if.end:                                           ; preds = %while.body
  call void @_ZN3net19QuicPacketGenerator20FlushAllQueuedFramesEv(ptr noundef nonnull align 8 dereferenceable(472) %packet_generator_)
  call void @_ZN3net19QuicPacketGenerator20ReserializeAllFramesERKNS_21PendingRetransmissionEPcm(ptr noundef nonnull align 8 dereferenceable(472) %packet_generator_, ptr noundef nonnull align 8 dereferenceable(26) %pending, ptr noundef nonnull %buffer, i64 noundef 1452)
  %4 = load ptr, ptr %sent_packet_manager_, align 8
  %vtable = load ptr, ptr %4, align 8
  %vfn = getelementptr inbounds i8, ptr %vtable, i64 88
  %5 = load ptr, ptr %vfn, align 8
  %call2 = call noundef zeroext i1 %5(ptr noundef nonnull align 8 dereferenceable(8) %4)
  br i1 %call2, label %while.body, label %while.end, !llvm.loop !50

while.end:                                        ; preds = %if.end, %while.body, %entry
  ret void
}